; ModuleID = '17/1023.c'
source_filename = "17/1023.c"
target datalayout = "e-m:e-p270:32:32-p271:32:32-p272:64:64-i64:64-f80:128-n8:16:32:64-S128"
target triple = "x86_64-pc-linux-gnu"

@.str = private unnamed_addr constant [3 x i8] c"%s\00", align 1

; Function Attrs: noinline nounwind uwtable
define dso_local i32 @main() #0 {
  %1 = alloca i32, align 4
  %2 = alloca [101 x i8], align 16
  %3 = alloca i32, align 4
  %4 = alloca [101 x i32], align 16
  %5 = alloca i32, align 4
  %6 = alloca i32, align 4
  store i32 0, i32* %1, align 4
  br label %7

7:                                                ; preds = %85, %0
  %8 = getelementptr inbounds [101 x i8], [101 x i8]* %2, i64 0, i64 0
  %9 = call i32 (i8*, ...) @__isoc99_scanf(i8* getelementptr inbounds ([3 x i8], [3 x i8]* @.str, i64 0, i64 0), i8* %8)
  %10 = icmp ne i32 %9, -1
  br i1 %10, label %11, label %88

11:                                               ; preds = %7
  store i32 0, i32* %5, align 4
  %12 = getelementptr inbounds [101 x i8], [101 x i8]* %2, i64 0, i64 0
  %13 = call i32 @puts(i8* %12)
  %14 = getelementptr inbounds [101 x i8], [101 x i8]* %2, i64 0, i64 0
  %15 = call i64 @strlen(i8* %14) #3
  %16 = trunc i64 %15 to i32
  store i32 %16, i32* %6, align 4
  store i32 0, i32* %3, align 4
  br label %17

17:                                               ; preds = %67, %11
  %18 = load i32, i32* %3, align 4
  %19 = load i32, i32* %6, align 4
  %20 = icmp slt i32 %18, %19
  br i1 %20, label %21, label %70

21:                                               ; preds = %17
  %22 = load i32, i32* %3, align 4
  %23 = sext i32 %22 to i64
  %24 = getelementptr inbounds [101 x i8], [101 x i8]* %2, i64 0, i64 %23
  %25 = load i8, i8* %24, align 1
  %26 = sext i8 %25 to i32
  %27 = icmp eq i32 %26, 40
  br i1 %27, label %28, label %34

28:                                               ; preds = %21
  %29 = load i32, i32* %3, align 4
  %30 = load i32, i32* %5, align 4
  %31 = add nsw i32 %30, 1
  store i32 %31, i32* %5, align 4
  %32 = sext i32 %31 to i64
  %33 = getelementptr inbounds [101 x i32], [101 x i32]* %4, i64 0, i64 %32
  store i32 %29, i32* %33, align 4
  br label %66

34:                                               ; preds = %21
  %35 = load i32, i32* %3, align 4
  %36 = sext i32 %35 to i64
  %37 = getelementptr inbounds [101 x i8], [101 x i8]* %2, i64 0, i64 %36
  %38 = load i8, i8* %37, align 1
  %39 = sext i8 %38 to i32
  %40 = icmp eq i32 %39, 41
  br i1 %40, label %41, label %61

41:                                               ; preds = %34
  %42 = load i32, i32* %5, align 4
  %43 = icmp ne i32 %42, 0
  br i1 %43, label %44, label %56

44:                                               ; preds = %41
  %45 = load i32, i32* %3, align 4
  %46 = sext i32 %45 to i64
  %47 = getelementptr inbounds [101 x i8], [101 x i8]* %2, i64 0, i64 %46
  store i8 32, i8* %47, align 1
  %48 = load i32, i32* %5, align 4
  %49 = sext i32 %48 to i64
  %50 = getelementptr inbounds [101 x i32], [101 x i32]* %4, i64 0, i64 %49
  %51 = load i32, i32* %50, align 4
  %52 = sext i32 %51 to i64
  %53 = getelementptr inbounds [101 x i8], [101 x i8]* %2, i64 0, i64 %52
  store i8 32, i8* %53, align 1
  %54 = load i32, i32* %5, align 4
  %55 = add nsw i32 %54, -1
  store i32 %55, i32* %5, align 4
  br label %60

56:                                               ; preds = %41
  %57 = load i32, i32* %3, align 4
  %58 = sext i32 %57 to i64
  %59 = getelementptr inbounds [101 x i8], [101 x i8]* %2, i64 0, i64 %58
  store i8 63, i8* %59, align 1
  br label %60

60:                                               ; preds = %56, %44
  br label %65

61:                                               ; preds = %34
  %62 = load i32, i32* %3, align 4
  %63 = sext i32 %62 to i64
  %64 = getelementptr inbounds [101 x i8], [101 x i8]* %2, i64 0, i64 %63
  store i8 32, i8* %64, align 1
  br label %65

65:                                               ; preds = %61, %60
  br label %66

66:                                               ; preds = %65, %28
  br label %67

67:                                               ; preds = %66
  %68 = load i32, i32* %3, align 4
  %69 = add nsw i32 %68, 1
  store i32 %69, i32* %3, align 4
  br label %17

70:                                               ; preds = %17
  store i32 1, i32* %3, align 4
  br label %71

71:                                               ; preds = %82, %70
  %72 = load i32, i32* %3, align 4
  %73 = load i32, i32* %5, align 4
  %74 = icmp sle i32 %72, %73
  br i1 %74, label %75, label %85

75:                                               ; preds = %71
  %76 = load i32, i32* %3, align 4
  %77 = sext i32 %76 to i64
  %78 = getelementptr inbounds [101 x i32], [101 x i32]* %4, i64 0, i64 %77
  %79 = load i32, i32* %78, align 4
  %80 = sext i32 %79 to i64
  %81 = getelementptr inbounds [101 x i8], [101 x i8]* %2, i64 0, i64 %80
  store i8 36, i8* %81, align 1
  br label %82

82:                                               ; preds = %75
  %83 = load i32, i32* %3, align 4
  %84 = add nsw i32 %83, 1
  store i32 %84, i32* %3, align 4
  br label %71

85:                                               ; preds = %71
  %86 = getelementptr inbounds [101 x i8], [101 x i8]* %2, i64 0, i64 0
  %87 = call i32 @puts(i8* %86)
  br label %7

88:                                               ; preds = %7
  %89 = load i32, i32* %1, align 4
  ret i32 %89
}

declare dso_local i32 @__isoc99_scanf(i8*, ...) #1

declare dso_local i32 @puts(i8*) #1

; Function Attrs: nounwind readonly
declare dso_local i64 @strlen(i8*) #2


!llvm.module.flags = !{!0}
!llvm.ident = !{!1}

!0 = !{i32 1, !"wchar_size", i32 4}
!1 = !{!"clang version 10.0.0-4ubuntu1 "}
